; Function Attrs: mustprogress nofree norecurse nosync nounwind willreturn memory(argmem: read) uwtable
define range(i32 0, 2) i32 @PQconnectionUsedPassword(ptr noundef readonly captures(address_is_null) %0) local_unnamed_addr #14 {
  %.not = icmp eq ptr %0, null
  br i1 %.not, label %5, label %2

2:                                                ; preds = %1
  %3 = getelementptr inbounds nuw i8, ptr %0, i64 809
  %4 = load i8, ptr %3, align 1, !range !13, !noundef !14
  %. = zext nneg i8 %4 to i32
  br label %5

5:                                                ; preds = %2, %1
  %.0 = phi i32 [ 0, %1 ], [ %., %2 ]
  ret i32 %.0
}